Certificate:
    Data:
        Version: 1 (0x0)
        Serial Number: 1 (0x1)
        Signature Algorithm: ecdsa-with-SHA256
        Issuer: C=US, ST=CA, L=Santa Clara, O=Patient Monitoring Innovations, CN=PMI Identity CA/emailAddress=identityca@pmi.com
        Validity
            Not Before: Nov 29 18:27:28 2021 GMT
            Not After : Nov 29 18:27:28 2023 GMT
        Subject: C=US, ST=CA, O=Patient Monitoring Innovations, CN=Alice/emailAddress=alice@pmi.com
        Subject Public Key Info:
            Public Key Algorithm: id-ecPublicKey
                Public-Key: (256 bit)
                pub:
                    04:71:94:75:af:e9:a8:f1:db:b4:d2:67:a1:f7:16:
                    67:50:cb:f2:32:05:30:f2:ad:18:5b:8f:c5:66:94:
                    10:fc:d0:db:5a:6f:f5:5c:a5:dc:da:3f:e1:02:54:
                    b9:37:29:a1:d2:fd:70:17:1e:11:37:c9:83:95:cc:
                    32:2c:a5:76:df
                ASN1 OID: prime256v1
                NIST CURVE: P-256
    Signature Algorithm: ecdsa-with-SHA256
         30:44:02:20:7d:0d:51:ef:fa:8f:f2:40:e0:e5:cc:ea:a5:8d:
         8d:2a:14:a0:0c:ea:50:3a:be:25:f6:52:11:98:08:b7:d8:5a:
         02:20:57:8a:a6:d9:8d:02:7c:a3:54:7f:96:4d:4f:b9:3e:4b:
         b8:3f:5d:d8:c3:98:9c:69:69:52:d3:8d:23:36:95:a5
-----BEGIN CERTIFICATE-----
MIIB7zCCAZYCAQEwCgYIKoZIzj0EAwIwgZYxCzAJBgNVBAYTAlVTMQswCQYDVQQI
DAJDQTEUMBIGA1UEBwwLU2FudGEgQ2xhcmExJzAlBgNVBAoMHlBhdGllbnQgTW9u
aXRvcmluZyBJbm5vdmF0aW9uczEYMBYGA1UEAwwPUE1JIElkZW50aXR5IENBMSEw
HwYJKoZIhvcNAQkBFhJpZGVudGl0eWNhQHBtaS5jb20wHhcNMjExMTI5MTgyNzI4
WhcNMjMxMTI5MTgyNzI4WjBxMQswCQYDVQQGEwJVUzELMAkGA1UECAwCQ0ExJzAl
BgNVBAoMHlBhdGllbnQgTW9uaXRvcmluZyBJbm5vdmF0aW9uczEOMAwGA1UEAwwF
QWxpY2UxHDAaBgkqhkiG9w0BCQEWDWFsaWNlQHBtaS5jb20wWTATBgcqhkjOPQIB
BggqhkjOPQMBBwNCAARxlHWv6ajx27TSZ6H3FmdQy/IyBTDyrRhbj8VmlBD80Nta
b/VcpdzaP+ECVLk3KaHS/XAXHhE3yYOVzDIspXbfMAoGCCqGSM49BAMCA0cAMEQC
IH0NUe/6j/JA4OXM6qWNjSoUoAzqUDq+JfZSEZgIt9haAiBXiqbZjQJ8o1R/lk1P
uT5LuD9d2MOYnGlpUtONIzaVpQ==
-----END CERTIFICATE-----
