Certificate:
    Data:
        Version: 1 (0x0)
        Serial Number:
            6f:b2:76:03:8c:7d:0e:a4:12:57:33:03:ee:b6:06:72:7e:98:4c:6d
        Signature Algorithm: sha256WithRSAEncryption
        Issuer: C = US, ST = CA, L = Santa Clara, O = Real Time Innovations, CN = RTI CA, emailAddress = secure@rti.com
        Validity
            Not Before: Apr 23 00:52:51 2021 GMT
            Not After : Apr 22 00:52:51 2026 GMT
        Subject: C = US, ST = CA, L = Santa Clara, O = Real Time Innovations, CN = RTI CA, emailAddress = secure@rti.com
        Subject Public Key Info:
            Public Key Algorithm: rsaEncryption
                RSA Public-Key: (2048 bit)
                Modulus:
                    00:a5:ad:be:e4:43:9f:e4:b9:d3:9b:cc:9e:7e:a9:
                    c9:a1:86:e3:01:fb:9b:da:11:c1:1b:6e:9a:71:3f:
                    36:f5:3d:0a:f2:43:45:cc:c8:6d:82:e9:7b:d4:a4:
                    35:7d:31:62:83:c4:f9:6f:5b:1a:64:de:4c:e6:34:
                    45:14:aa:d7:fc:68:5b:ca:de:69:b4:77:1b:fe:d2:
                    6f:c9:cb:7f:d6:e3:c4:e7:09:89:e8:47:6d:d8:d2:
                    1b:8d:44:5b:57:1c:c0:ed:7b:58:f7:c3:c6:c4:72:
                    3a:71:06:87:62:ae:a5:aa:86:91:5f:b3:df:4c:df:
                    25:b2:de:5e:2d:83:36:76:70:c1:ce:07:9a:05:9c:
                    04:4f:b0:4a:37:c2:50:ec:fc:61:96:38:9a:d7:1d:
                    17:e4:67:a2:6a:0c:8e:b6:6d:ca:ea:9b:b5:f3:b6:
                    ee:00:a6:52:cd:1c:61:aa:3b:d4:7a:4a:cb:bf:71:
                    e2:dc:af:e6:7c:a5:2f:db:f9:00:fb:45:6f:cf:a1:
                    8f:f7:0b:8a:a6:fd:23:1d:5f:80:da:00:41:8b:05:
                    89:96:79:01:4a:c8:07:69:05:be:c9:13:b6:fe:3d:
                    f1:75:26:12:2f:cf:0e:01:d4:7d:aa:79:0a:44:9c:
                    03:77:00:4f:67:24:16:26:71:8e:c2:59:94:ba:7f:
                    77:65
                Exponent: 65537 (0x10001)
    Signature Algorithm: sha256WithRSAEncryption
         7d:79:f9:d6:fd:8c:ff:17:07:ed:9b:9f:e7:d6:ed:02:d0:cb:
         f4:6a:ea:51:ef:71:2e:04:70:65:89:0e:14:bb:15:b8:50:13:
         29:48:98:5f:f6:d3:94:4e:4b:84:55:4f:9d:a3:5f:a9:39:61:
         26:db:41:6d:ba:54:ec:02:47:fa:03:da:4a:c5:70:63:a9:72:
         ac:b2:3e:f6:af:92:08:fa:7a:76:19:b0:c6:a1:72:fb:1c:cb:
         87:9d:6e:94:dc:cc:f0:ea:74:8e:b8:45:d0:c1:99:21:33:3e:
         82:a8:4a:1d:a1:e0:d5:62:9d:5a:52:d9:91:d5:0b:71:64:fa:
         27:31:ad:1a:ea:d8:52:c2:e4:0e:3f:6d:d3:ad:07:04:e9:b5:
         fe:88:90:7a:58:dd:ae:e1:02:da:19:9a:db:66:b0:a1:b6:26:
         c3:49:86:ac:d7:49:ee:6c:40:24:2f:dd:0f:6d:54:06:f8:7d:
         00:90:80:ee:db:10:d4:52:2e:d4:20:b0:84:16:5d:e2:63:02:
         89:8a:ae:03:d3:2f:9b:04:d8:a5:87:e7:b4:15:eb:07:d1:12:
         cf:7a:c1:b4:f4:65:6e:bd:f8:73:2d:68:56:24:14:5e:1c:5c:
         4c:0b:64:e7:ea:23:6b:f5:f0:0b:4b:7d:ad:03:c4:f5:7a:7f:
         d1:52:60:85
-----BEGIN CERTIFICATE-----
MIIDiTCCAnECFG+ydgOMfQ6kElczA+62BnJ+mExtMA0GCSqGSIb3DQEBCwUAMIGA
MQswCQYDVQQGEwJVUzELMAkGA1UECAwCQ0ExFDASBgNVBAcMC1NhbnRhIENsYXJh
MR4wHAYDVQQKDBVSZWFsIFRpbWUgSW5ub3ZhdGlvbnMxDzANBgNVBAMMBlJUSSBD
QTEdMBsGCSqGSIb3DQEJARYOc2VjdXJlQHJ0aS5jb20wHhcNMjEwNDIzMDA1MjUx
WhcNMjYwNDIyMDA1MjUxWjCBgDELMAkGA1UEBhMCVVMxCzAJBgNVBAgMAkNBMRQw
EgYDVQQHDAtTYW50YSBDbGFyYTEeMBwGA1UECgwVUmVhbCBUaW1lIElubm92YXRp
b25zMQ8wDQYDVQQDDAZSVEkgQ0ExHTAbBgkqhkiG9w0BCQEWDnNlY3VyZUBydGku
Y29tMIIBIjANBgkqhkiG9w0BAQEFAAOCAQ8AMIIBCgKCAQEApa2+5EOf5LnTm8ye
fqnJoYbjAfub2hHBG26acT829T0K8kNFzMhtgul71KQ1fTFig8T5b1saZN5M5jRF
FKrX/Ghbyt5ptHcb/tJvyct/1uPE5wmJ6Edt2NIbjURbVxzA7XtY98PGxHI6cQaH
Yq6lqoaRX7PfTN8lst5eLYM2dnDBzgeaBZwET7BKN8JQ7Pxhljia1x0X5GeiagyO
tm3K6pu187buAKZSzRxhqjvUekrLv3Hi3K/mfKUv2/kA+0Vvz6GP9wuKpv0jHV+A
2gBBiwWJlnkBSsgHaQW+yRO2/j3xdSYSL88OAdR9qnkKRJwDdwBPZyQWJnGOwlmU
un93ZQIDAQABMA0GCSqGSIb3DQEBCwUAA4IBAQB9efnW/Yz/Fwftm5/n1u0C0Mv0
aupR73EuBHBliQ4UuxW4UBMpSJhf9tOUTkuEVU+do1+pOWEm20FtulTsAkf6A9pK
xXBjqXKssj72r5II+np2GbDGoXL7HMuHnW6U3Mzw6nSOuEXQwZkhMz6CqEodoeDV
Yp1aUtmR1QtxZPonMa0a6thSwuQOP23TrQcE6bX+iJB6WN2u4QLaGZrbZrChtibD
SYas10nubEAkL90PbVQG+H0AkIDu2xDUUi7UILCEFl3iYwKJiq4D0y+bBNilh+e0
FesH0RLPesG09GVuvfhzLWhWJBReHFxMC2Tn6iNr9fALS32tA8T1en/RUmCF
-----END CERTIFICATE-----
