Certificate:
    Data:
        Version: 1 (0x0)
        Serial Number:
            15:03:5b:93:9b:ad:c6:02:d2:9d:b2:71:d7:29:83:80:f1:4d:9d:bc
        Signature Algorithm: NULL
        Issuer: C = US, ST = CA, O = Real Time Innovations, emailAddress = youECdsa@rti.com, CN = dtlsexample2ECdsa
        Validity
            Not Before: Apr 23 00:52:45 2021 GMT
            Not After : Apr 22 00:52:45 2026 GMT
        Subject: C = US, ST = CA, O = Real Time Innovations, emailAddress = youECdsa@rti.com, CN = dtlsexample2ECdsa
        Subject Public Key Info:
            Public Key Algorithm: id-ecPublicKey
                Public-Key: (256 bit)
                pub:
                    04:27:d4:2a:72:18:5b:48:10:e9:31:ec:08:3c:c0:
                    c9:bf:ff:74:3d:d5:5c:aa:0a:5d:50:5a:2d:98:d3:
                    b4:48:37:18:c3:0c:ef:b1:26:74:b9:fd:26:f4:07:
                    57:ba:06:43:ed:31:3e:ea:ed:bf:be:d5:ed:3c:1a:
                    13:05:c8:74:fe
                ASN1 OID: prime256v1
                NIST CURVE: P-256
    Signature Algorithm: NULL
-----BEGIN CERTIFICATE-----
MIIB+DCCAZ6gAwIBAgIUOlH/0C2wmHy9f0WX87fpF54y5dkwCgYIKoZIzj0EAwIw
gYAxCzAJBgNVBAYTAlVTMQswCQYDVQQIDAJDQTEUMBIGA1UEBwwLU2FudGEgQ2xh
cmExHjAcBgNVBAoMFVJlYWwgVGltZSBJbm5vdmF0aW9uczEPMA0GA1UEAwwGUlRJ
IENBMR0wGwYJKoZIhvcNAQkBFg5zZWN1cmVAcnRpLmNvbTAeFw0yMTA0MjMwMDUy
NDVaFw0yNjA0MjIwMDUyNDVaMHcxCzAJBgNVBAYTAlVTMQswCQYDVQQIDAJDQTEe
MBwGA1UECgwVUmVhbCBUaW1lIElubm92YXRpb25zMR8wHQYJKoZIhvcNAQkBFhB5
b3VFQ2RzYUBydGkuY29tMRowGAYDVQQDDBFkdGxzZXhhbXBsZTJFQ2RzYTBZMBMG
ByqGSM49AgEGCCqGSM49AwEHA0IABCfUKnIYW0gQ6THsCDzAyb//dD3VXKoKXVBa
LZjTtEg3GMMM77EmdLn9JvQHV7oGQ+0xPurtv77V7TwaEwXIdP4wCgYIKoZIzj0E
AwIDSAAwRQIhAKJ7nvZV1hUWx6qEytaRLfU+zZWPIkpfVuu/pY7aztGIAiBe6fVL
bxw2qBpfZ5Cu96hyNMOClag48p5BADyBTbGRHQ==
-----END CERTIFICATE-----
