Certificate:
    Data:
        Version: 1 (0x0)
        Serial Number:
            53:e6:fd:6c:a4:76:d2:07:c8:05:e1:6f:f5:d4:ac:89:cf:37:d4:60
        Signature Algorithm: NULL
        Issuer: C = US, ST = CA, O = Real Time Innovations, emailAddress = meECdsa@rti.com, CN = dtlsexampleECdsa
        Validity
            Not Before: Apr 23 00:52:45 2021 GMT
            Not After : Apr 22 00:52:45 2026 GMT
        Subject: C = US, ST = CA, O = Real Time Innovations, emailAddress = meECdsa@rti.com, CN = dtlsexampleECdsa
        Subject Public Key Info:
            Public Key Algorithm: id-ecPublicKey
                Public-Key: (256 bit)
                pub:
                    04:5c:1a:15:da:2c:24:2c:e3:da:68:e0:ae:08:75:
                    5a:cd:34:87:59:b4:4e:d1:7f:45:61:cb:fe:60:da:
                    31:d0:dd:43:02:5d:86:46:1a:0c:2e:03:aa:f0:62:
                    4b:4a:ca:12:ed:2b:ca:fc:64:a4:89:58:61:00:21:
                    7d:b7:6b:49:69
                ASN1 OID: prime256v1
                NIST CURVE: P-256
    Signature Algorithm: NULL
-----BEGIN CERTIFICATE-----
MIIB9zCCAZygAwIBAgIUOlH/0C2wmHy9f0WX87fpF54y5dgwCgYIKoZIzj0EAwIw
gYAxCzAJBgNVBAYTAlVTMQswCQYDVQQIDAJDQTEUMBIGA1UEBwwLU2FudGEgQ2xh
cmExHjAcBgNVBAoMFVJlYWwgVGltZSBJbm5vdmF0aW9uczEPMA0GA1UEAwwGUlRJ
IENBMR0wGwYJKoZIhvcNAQkBFg5zZWN1cmVAcnRpLmNvbTAeFw0yMTA0MjMwMDUy
NDVaFw0yNjA0MjIwMDUyNDVaMHUxCzAJBgNVBAYTAlVTMQswCQYDVQQIDAJDQTEe
MBwGA1UECgwVUmVhbCBUaW1lIElubm92YXRpb25zMR4wHAYJKoZIhvcNAQkBFg9t
ZUVDZHNhQHJ0aS5jb20xGTAXBgNVBAMMEGR0bHNleGFtcGxlRUNkc2EwWTATBgcq
hkjOPQIBBggqhkjOPQMBBwNCAARcGhXaLCQs49po4K4IdVrNNIdZtE7Rf0Vhy/5g
2jHQ3UMCXYZGGgwuA6rwYktKyhLtK8r8ZKSJWGEAIX23a0lpMAoGCCqGSM49BAMC
A0kAMEYCIQDk+ztSKazc+//UYPSeBmXkaXfDdU8VS1mX0ugFkE2LMgIhANTW5XyF
Yyb3sKGTZA7oTjPzWBMcpvFrLs9M206KCjnr
-----END CERTIFICATE-----
