Certificate:
    Data:
        Version: 1 (0x0)
        Serial Number:
            16:df:6a:e5:c3:1c:60:af:e3:93:58:da:bf:2b:50:d6:33:01:a4:d0
        Signature Algorithm: ecdsa-with-SHA256
        Issuer: C = US, ST = CA, L = Santa Clara, O = Patient Monitoring Innovations, CN = PMI Identity CA, emailAddress = identityca@pmi.com
        Validity
            Not Before: Nov 29 18:05:00 2021 GMT
            Not After : Nov 28 18:05:00 2026 GMT
        Subject: C = US, ST = CA, L = Santa Clara, O = Patient Monitoring Innovations, CN = PMI Identity CA, emailAddress = identityca@pmi.com
        Subject Public Key Info:
            Public Key Algorithm: id-ecPublicKey
                Public-Key: (256 bit)
                pub:
                    04:9a:8b:34:25:8f:a9:c7:b6:13:60:cb:74:78:91:
                    ab:31:65:59:74:37:f9:d2:14:30:aa:13:e6:49:c9:
                    8a:9e:71:6f:98:3e:8d:be:78:31:d8:e3:59:09:8e:
                    1a:f7:31:18:a6:95:6f:b0:ec:18:42:b8:40:f5:99:
                    39:ec:82:dd:2f
                ASN1 OID: prime256v1
                NIST CURVE: P-256
    Signature Algorithm: ecdsa-with-SHA256
         30:45:02:21:00:8e:34:ad:17:25:cb:54:0e:57:3c:18:2a:e6:
         fb:47:8c:1b:f3:84:37:e2:09:30:55:7f:32:0b:71:12:a0:53:
         bf:02:20:5b:4f:61:a6:4a:0b:6c:10:89:65:d8:c0:ef:3a:ea:
         72:b3:b3:34:7b:ac:c9:26:f3:2f:16:88:04:71:3c:a4:a0
-----BEGIN CERTIFICATE-----
MIICKTCCAc8CFBbfauXDHGCv45NY2r8rUNYzAaTQMAoGCCqGSM49BAMCMIGWMQsw
CQYDVQQGEwJVUzELMAkGA1UECAwCQ0ExFDASBgNVBAcMC1NhbnRhIENsYXJhMScw
JQYDVQQKDB5QYXRpZW50IE1vbml0b3JpbmcgSW5ub3ZhdGlvbnMxGDAWBgNVBAMM
D1BNSSBJZGVudGl0eSBDQTEhMB8GCSqGSIb3DQEJARYSaWRlbnRpdHljYUBwbWku
Y29tMB4XDTIxMTEyOTE4MDUwMFoXDTI2MTEyODE4MDUwMFowgZYxCzAJBgNVBAYT
AlVTMQswCQYDVQQIDAJDQTEUMBIGA1UEBwwLU2FudGEgQ2xhcmExJzAlBgNVBAoM
HlBhdGllbnQgTW9uaXRvcmluZyBJbm5vdmF0aW9uczEYMBYGA1UEAwwPUE1JIElk
ZW50aXR5IENBMSEwHwYJKoZIhvcNAQkBFhJpZGVudGl0eWNhQHBtaS5jb20wWTAT
BgcqhkjOPQIBBggqhkjOPQMBBwNCAASaizQlj6nHthNgy3R4kasxZVl0N/nSFDCq
E+ZJyYqecW+YPo2+eDHY41kJjhr3MRimlW+w7BhCuED1mTnsgt0vMAoGCCqGSM49
BAMCA0gAMEUCIQCONK0XJctUDlc8GCrm+0eMG/OEN+IJMFV/MgtxEqBTvwIgW09h
pkoLbBCJZdjA7zrqcrOzNHusySbzLxaIBHE8pKA=
-----END CERTIFICATE-----
