Certificate:
    Data:
        Version: 1 (0x0)
        Serial Number:
            65:28:3b:36:57:4b:0e:93:2c:b0:e7:15:e8:11:3e:a1:6c:63:e2:23
        Signature Algorithm: ecdsa-with-SHA256
        Issuer: C = US, ST = CA, L = Santa Clara, O = Patient Monitoring Innovations, CN = PMI Permissions CA, emailAddress = permissionsca@pmi.com
        Validity
            Not Before: Nov 29 18:56:03 2021 GMT
            Not After : Nov 28 18:56:03 2026 GMT
        Subject: C = US, ST = CA, L = Santa Clara, O = Patient Monitoring Innovations, CN = PMI Permissions CA, emailAddress = permissionsca@pmi.com
        Subject Public Key Info:
            Public Key Algorithm: id-ecPublicKey
                Public-Key: (256 bit)
                pub:
                    04:df:6d:5c:5b:4a:ec:e8:f3:d5:8e:34:48:a3:ac:
                    41:c1:88:b1:45:3a:78:a3:db:f6:1f:42:ce:a8:83:
                    98:b9:76:d6:a4:4d:13:6f:36:93:94:a7:d6:3c:06:
                    ba:b5:16:03:d3:b8:b7:b6:ef:80:02:c9:c8:7f:df:
                    10:76:ee:7b:32
                ASN1 OID: prime256v1
                NIST CURVE: P-256
    Signature Algorithm: ecdsa-with-SHA256
         30:45:02:21:00:90:67:9e:61:6e:98:a0:06:47:26:99:91:de:
         e6:c2:13:d3:1f:6d:8b:29:81:d6:9a:59:05:dd:2a:5c:c1:34:
         2b:02:20:54:d3:1f:65:79:5f:55:92:77:2a:f7:ad:23:b2:75:
         2b:98:af:e2:4c:89:80:fb:4f:f4:41:45:d2:da:de:d0:a4
-----BEGIN CERTIFICATE-----
MIICNTCCAdsCFGUoOzZXSw6TLLDnFegRPqFsY+IjMAoGCCqGSM49BAMCMIGcMQsw
CQYDVQQGEwJVUzELMAkGA1UECAwCQ0ExFDASBgNVBAcMC1NhbnRhIENsYXJhMScw
JQYDVQQKDB5QYXRpZW50IE1vbml0b3JpbmcgSW5ub3ZhdGlvbnMxGzAZBgNVBAMM
ElBNSSBQZXJtaXNzaW9ucyBDQTEkMCIGCSqGSIb3DQEJARYVcGVybWlzc2lvbnNj
YUBwbWkuY29tMB4XDTIxMTEyOTE4NTYwM1oXDTI2MTEyODE4NTYwM1owgZwxCzAJ
BgNVBAYTAlVTMQswCQYDVQQIDAJDQTEUMBIGA1UEBwwLU2FudGEgQ2xhcmExJzAl
BgNVBAoMHlBhdGllbnQgTW9uaXRvcmluZyBJbm5vdmF0aW9uczEbMBkGA1UEAwwS
UE1JIFBlcm1pc3Npb25zIENBMSQwIgYJKoZIhvcNAQkBFhVwZXJtaXNzaW9uc2Nh
QHBtaS5jb20wWTATBgcqhkjOPQIBBggqhkjOPQMBBwNCAATfbVxbSuzo89WONEij
rEHBiLFFOnij2/YfQs6og5i5dtakTRNvNpOUp9Y8Brq1FgPTuLe274ACych/3xB2
7nsyMAoGCCqGSM49BAMCA0gAMEUCIQCQZ55hbpigBkcmmZHe5sIT0x9tiymB1ppZ
Bd0qXME0KwIgVNMfZXlfVZJ3KvetI7J1K5iv4kyJgPtP9EFF0tre0KQ=
-----END CERTIFICATE-----
