Certificate:
    Data:
        Version: 1 (0x0)
        Serial Number:
            0a:04:93:55:42:d1:91:d8:fa:c0:29:de:0b:38:b4:f6:e5:cc:7b:fe
        Signature Algorithm: NULL
        Issuer: C = US, ST = CA, O = Real Time Innovations, emailAddress = me@rti.com, CN = dtlsexample
        Validity
            Not Before: Apr 23 00:52:52 2021 GMT
            Not After : Apr 22 00:52:52 2026 GMT
        Subject: C = US, ST = CA, O = Real Time Innovations, emailAddress = me@rti.com, CN = dtlsexample
        Subject Public Key Info:
            Public Key Algorithm: rsaEncryption
                RSA Public-Key: (2048 bit)
                Modulus:
                    00:bd:a2:6e:04:ae:d9:66:67:c9:4e:00:89:27:2c:
                    67:59:b3:c3:7c:49:bd:02:8f:68:3c:c7:49:b3:e2:
                    57:19:70:e0:b9:1f:2c:2a:22:a2:f2:fa:61:fa:c3:
                    64:45:a0:ba:80:83:3a:2d:bb:2e:4c:cd:a4:78:72:
                    89:5f:14:13:7b:09:bf:a8:33:99:de:7b:e4:65:f3:
                    23:3a:43:63:80:f7:03:75:7c:5c:bd:d6:68:11:6d:
                    9d:fc:b2:54:c9:69:18:17:9a:5e:7c:f4:e3:b8:79:
                    7e:e2:7c:74:3e:2c:59:da:c7:98:1f:39:8f:fd:3e:
                    d3:49:49:93:68:f3:4e:b6:d3:c2:a1:eb:eb:2d:fb:
                    be:40:df:a1:b1:a1:a8:3d:70:04:d9:5f:be:b1:5e:
                    79:bc:fc:5a:5c:cd:cc:d8:ff:7a:f5:3a:8c:d8:d1:
                    36:b5:0c:76:32:81:a1:e6:a8:df:04:a3:ae:54:fd:
                    98:5d:c8:c1:2e:ec:e2:11:dd:eb:aa:93:cb:f5:c3:
                    92:9a:7f:34:ac:97:55:98:98:fc:5a:86:3d:19:2c:
                    8f:53:5c:ed:26:26:8d:e2:d7:5a:64:1b:00:8e:94:
                    cd:82:fd:02:da:a1:7d:e2:f3:e0:7f:37:02:a8:ff:
                    32:f9:23:78:7d:e3:5a:6c:d3:68:d6:c8:e7:3e:3c:
                    2b:63
                Exponent: 65537 (0x10001)
    Signature Algorithm: NULL
-----BEGIN CERTIFICATE-----
MIIDeDCCAmCgAwIBAgIUOp84j2bU8kVvOXsJz6ZXNglCSqcwDQYJKoZIhvcNAQEL
BQAwgYAxCzAJBgNVBAYTAlVTMQswCQYDVQQIDAJDQTEUMBIGA1UEBwwLU2FudGEg
Q2xhcmExHjAcBgNVBAoMFVJlYWwgVGltZSBJbm5vdmF0aW9uczEPMA0GA1UEAwwG
UlRJIENBMR0wGwYJKoZIhvcNAQkBFg5zZWN1cmVAcnRpLmNvbTAeFw0yMTA0MjMw
MDUyNTJaFw0yNjA0MjIwMDUyNTJaMGsxCzAJBgNVBAYTAlVTMQswCQYDVQQIDAJD
QTEeMBwGA1UECgwVUmVhbCBUaW1lIElubm92YXRpb25zMRkwFwYJKoZIhvcNAQkB
FgptZUBydGkuY29tMRQwEgYDVQQDDAtkdGxzZXhhbXBsZTCCASIwDQYJKoZIhvcN
AQEBBQADggEPADCCAQoCggEBAL2ibgSu2WZnyU4AiScsZ1mzw3xJvQKPaDzHSbPi
Vxlw4LkfLCoiovL6YfrDZEWguoCDOi27LkzNpHhyiV8UE3sJv6gzmd575GXzIzpD
Y4D3A3V8XL3WaBFtnfyyVMlpGBeaXnz047h5fuJ8dD4sWdrHmB85j/0+00lJk2jz
TrbTwqHr6y37vkDfobGhqD1wBNlfvrFeebz8WlzNzNj/evU6jNjRNrUMdjKBoeao
3wSjrlT9mF3IwS7s4hHd66qTy/XDkpp/NKyXVZiY/FqGPRksj1Nc7SYmjeLXWmQb
AI6UzYL9AtqhfeLz4H83Aqj/MvkjeH3jWmzTaNbI5z48K2MCAwEAATANBgkqhkiG
9w0BAQsFAAOCAQEAoK1MnNiGCQbCruIFi3uH98iC0rfPQUGiOW56uKw3DwaXcUN8
KQaxv4cpAIuuwpi8bVWExwfeEhcrQe0QHbA2KEO20HQ9HffGv4oleg1l2LqXG38o
wH+LYRFF7daXhHs/FyfdHh/MgPpe53+yYeTFc/vKO59LlVUT2YBENXHKMTg0dsj8
GHU1W8X5HBMOtNjFg9ont86uYVcMyT292p4GC8NAM8MAnVqXVHRNQPIbHD+PazA6
1f9FNxTFp+QcqyTvBYqJsQfCrZKdo2OZmrMJYbLJjQIrCr7jRq7YF9pmaBYKpqVE
T1CITRcDa8bxr+GD/P7f+6BByeaNv6gAOXgxbw==
-----END CERTIFICATE-----
