Certificate:
    Data:
        Version: 1 (0x0)
        Serial Number:
            42:c8:94:7b:6b:95:00:82:39:50:dc:45:ed:f5:61:78:e4:bf:95:14
        Signature Algorithm: NULL
        Issuer: C = US, ST = CA, O = Real Time Innovations, emailAddress = you@rti.com, CN = dtlsexample2
        Validity
            Not Before: Apr 23 00:52:53 2021 GMT
            Not After : Apr 22 00:52:53 2026 GMT
        Subject: C = US, ST = CA, O = Real Time Innovations, emailAddress = you@rti.com, CN = dtlsexample2
        Subject Public Key Info:
            Public Key Algorithm: rsaEncryption
                RSA Public-Key: (2048 bit)
                Modulus:
                    00:d4:4b:bb:64:0d:eb:53:4b:35:e9:3a:93:dd:1a:
                    40:57:40:c7:97:87:cd:e1:10:84:37:e6:21:b0:c4:
                    2e:30:87:a4:d9:bc:e8:15:f0:0b:e6:bf:1c:a3:5a:
                    b5:b0:69:17:7b:70:13:29:85:04:1b:a6:90:d7:43:
                    56:16:3d:2a:8d:a0:6a:8f:c0:9c:c8:21:dd:e1:48:
                    34:3c:14:27:b9:b5:70:81:4e:87:1a:89:d1:dd:7e:
                    f1:92:74:2a:e4:d8:eb:fe:c8:bf:84:d5:2f:f0:9c:
                    d8:8a:1f:20:69:69:5f:bd:dd:a1:7b:20:c4:91:d9:
                    b5:0b:20:45:f9:71:25:0e:10:be:7a:09:d1:1f:ae:
                    b9:60:47:cc:7b:0e:34:76:5a:85:35:bc:52:39:49:
                    26:82:69:08:a7:b3:00:3a:a9:98:63:6e:1c:03:ab:
                    dc:9b:29:99:38:6d:25:15:ec:fa:de:21:78:da:c1:
                    e7:70:cf:65:c0:18:4a:65:f6:cf:9e:48:ec:5f:14:
                    76:1c:a9:94:0c:c3:91:2f:03:20:5b:33:23:6d:f0:
                    d9:8d:a3:ce:19:9e:09:28:ad:cb:f8:20:3d:9a:e6:
                    7f:eb:4f:8f:24:86:21:a5:0b:ec:3a:56:e6:ea:53:
                    90:4a:3e:c2:c7:1b:f2:f3:84:e5:d3:4b:61:c2:39:
                    55:4f
                Exponent: 65537 (0x10001)
    Signature Algorithm: NULL
-----BEGIN CERTIFICATE-----
MIIDejCCAmKgAwIBAgIUOp84j2bU8kVvOXsJz6ZXNglCSqgwDQYJKoZIhvcNAQEL
BQAwgYAxCzAJBgNVBAYTAlVTMQswCQYDVQQIDAJDQTEUMBIGA1UEBwwLU2FudGEg
Q2xhcmExHjAcBgNVBAoMFVJlYWwgVGltZSBJbm5vdmF0aW9uczEPMA0GA1UEAwwG
UlRJIENBMR0wGwYJKoZIhvcNAQkBFg5zZWN1cmVAcnRpLmNvbTAeFw0yMTA0MjMw
MDUyNTNaFw0yNjA0MjIwMDUyNTNaMG0xCzAJBgNVBAYTAlVTMQswCQYDVQQIDAJD
QTEeMBwGA1UECgwVUmVhbCBUaW1lIElubm92YXRpb25zMRowGAYJKoZIhvcNAQkB
Fgt5b3VAcnRpLmNvbTEVMBMGA1UEAwwMZHRsc2V4YW1wbGUyMIIBIjANBgkqhkiG
9w0BAQEFAAOCAQ8AMIIBCgKCAQEA1Eu7ZA3rU0s16TqT3RpAV0DHl4fN4RCEN+Yh
sMQuMIek2bzoFfAL5r8co1q1sGkXe3ATKYUEG6aQ10NWFj0qjaBqj8CcyCHd4Ug0
PBQnubVwgU6HGonR3X7xknQq5Njr/si/hNUv8JzYih8gaWlfvd2heyDEkdm1CyBF
+XElDhC+egnRH665YEfMew40dlqFNbxSOUkmgmkIp7MAOqmYY24cA6vcmymZOG0l
Fez63iF42sHncM9lwBhKZfbPnkjsXxR2HKmUDMORLwMgWzMjbfDZjaPOGZ4JKK3L
+CA9muZ/60+PJIYhpQvsOlbm6lOQSj7Cxxvy84Tl00thwjlVTwIDAQABMA0GCSqG
SIb3DQEBCwUAA4IBAQAJ5Q1dpr4V6rFI9zLL95VO5klM4mIvRnq/rUVtEBlnQyHI
4I8XVazieelEPVmW7m9O3NFj/GkXGrJ+RB9zjI5eqRi9Qhp+sIPbzWPgQYiXpV2+
WttUzygi07rysQ30WJ1wOVjFGy746D2dL0Kn3yIx8yC/EjXOuq7VOoprSYIB9/x2
uzK6mCO1grDrtRyWptAmifFJfcL7E8Sm3ZwZAPmiKsV+FQn5RcnetYqobEA4dcJW
Lw1lFW04ncYmV06Sa2iNGYZfJ/XkxWNv4oZ/oJqjEgl/8ai3RqdEJPXe5oFPczKN
ItFlM51riV8NDCBEVyQBq/8swNd1thA9WmQSduY4
-----END CERTIFICATE-----
