Certificate:
    Data:
        Version: 1 (0x0)
        Serial Number:
            7e:0f:ef:e2:95:2e:cc:f1:9e:85:2d:1a:ad:6a:60:05:94:0b:89:b3
        Signature Algorithm: ecdsa-with-SHA256
        Issuer: C = US, ST = CA, L = Santa Clara, O = Real Time Innovations, CN = RTI CA, emailAddress = secure@rti.com
        Validity
            Not Before: Apr 23 00:52:45 2021 GMT
            Not After : Apr 22 00:52:45 2026 GMT
        Subject: C = US, ST = CA, L = Santa Clara, O = Real Time Innovations, CN = RTI CA, emailAddress = secure@rti.com
        Subject Public Key Info:
            Public Key Algorithm: id-ecPublicKey
                Public-Key: (256 bit)
                pub:
                    04:fa:89:6b:c1:d6:c2:91:07:70:d0:38:86:c0:91:
                    5d:2f:4c:68:cb:72:3f:31:7c:d1:35:76:8a:69:87:
                    66:55:45:44:72:e5:0a:df:1a:d5:eb:18:54:7b:f4:
                    a8:4b:1c:be:e7:6a:bc:ae:e3:e6:ee:17:d9:c7:8c:
                    e2:ce:2f:ae:bc
                ASN1 OID: prime256v1
                NIST CURVE: P-256
    Signature Algorithm: ecdsa-with-SHA256
         30:45:02:21:00:b5:a9:43:71:37:78:5f:65:e4:1e:f6:d6:a6:
         e7:77:6d:52:37:58:26:9a:71:20:65:39:e6:5b:b7:50:92:8a:
         0c:02:20:55:53:1a:10:41:17:12:df:3f:62:74:2c:00:af:f0:
         0e:8b:98:ec:cb:e4:65:87:57:91:ab:08:2b:c0:73:d1:d9
-----BEGIN CERTIFICATE-----
MIIB/TCCAaMCFH4P7+KVLszxnoUtGq1qYAWUC4mzMAoGCCqGSM49BAMCMIGAMQsw
CQYDVQQGEwJVUzELMAkGA1UECAwCQ0ExFDASBgNVBAcMC1NhbnRhIENsYXJhMR4w
HAYDVQQKDBVSZWFsIFRpbWUgSW5ub3ZhdGlvbnMxDzANBgNVBAMMBlJUSSBDQTEd
MBsGCSqGSIb3DQEJARYOc2VjdXJlQHJ0aS5jb20wHhcNMjEwNDIzMDA1MjQ1WhcN
MjYwNDIyMDA1MjQ1WjCBgDELMAkGA1UEBhMCVVMxCzAJBgNVBAgMAkNBMRQwEgYD
VQQHDAtTYW50YSBDbGFyYTEeMBwGA1UECgwVUmVhbCBUaW1lIElubm92YXRpb25z
MQ8wDQYDVQQDDAZSVEkgQ0ExHTAbBgkqhkiG9w0BCQEWDnNlY3VyZUBydGkuY29t
MFkwEwYHKoZIzj0CAQYIKoZIzj0DAQcDQgAE+olrwdbCkQdw0DiGwJFdL0xoy3I/
MXzRNXaKaYdmVUVEcuUK3xrV6xhUe/SoSxy+52q8ruPm7hfZx4zizi+uvDAKBggq
hkjOPQQDAgNIADBFAiEAtalDcTd4X2XkHvbWpud3bVI3WCaacSBlOeZbt1CSigwC
IFVTGhBBFxLfP2J0LACv8A6LmOzL5GWHV5GrCCvAc9HZ
-----END CERTIFICATE-----
