Certificate:
    Data:
        Version: 3 (0x2)
        Serial Number:
            57:5b:33:a7:4e:40:ba:d6:39:b1:79:81:7b:72:16:52
        Signature Algorithm: ecdsa-with-SHA256
        Issuer: CN = my-selfsigned-identity-ca
        Validity
            Not Before: Jan  3 16:37:27 2022 GMT
            Not After : Apr  3 16:37:27 2022 GMT
        Subject: CN = alice-identity-cert
        Subject Public Key Info:
            Public Key Algorithm: rsaEncryption
                RSA Public-Key: (2048 bit)
                Modulus:
                    00:a9:35:18:4d:13:bb:d1:87:db:83:b7:6e:ea:ec:
                    18:74:00:1f:0e:01:c9:63:2a:52:bd:b5:7a:73:aa:
                    a2:1b:97:cf:cd:88:e6:29:a6:0d:10:2a:b6:ae:bc:
                    d2:89:04:b2:de:4f:49:27:2f:b7:26:fc:30:9b:3b:
                    b5:28:eb:8a:7b:24:0a:60:f6:f5:e0:4d:3c:d8:42:
                    0f:c7:53:f4:f4:40:49:10:2f:48:c0:bb:87:c9:9d:
                    78:7e:44:de:4e:17:e6:0b:8c:b9:31:62:ea:44:78:
                    39:62:da:64:d8:03:5c:eb:51:df:2b:2d:61:01:92:
                    17:b4:2a:08:01:d1:b9:cf:f7:7b:ab:5a:ee:55:35:
                    9f:08:f8:fc:67:9d:82:b2:06:4b:1f:44:8c:27:f5:
                    63:ac:fb:a7:97:0e:31:b7:b1:5e:92:ec:e2:0d:a4:
                    40:c0:46:93:ab:76:b6:39:d9:44:9d:db:54:44:74:
                    aa:38:4b:c2:9f:6e:5b:c4:6f:53:ba:4f:68:de:16:
                    df:f5:b3:11:a5:c2:65:9c:fd:3c:ec:e9:6e:63:fa:
                    5d:aa:3c:8c:33:bf:aa:e8:f1:4c:c6:c3:a4:ed:a7:
                    0a:6f:87:7d:fc:54:fe:4d:38:78:e1:6b:75:8e:d8:
                    07:76:95:c0:8e:2c:d7:70:2f:e1:dd:37:cb:9e:58:
                    ab:21
                Exponent: 65537 (0x10001)
        X509v3 extensions:
            X509v3 Key Usage: critical
                Digital Signature, Key Encipherment
            X509v3 Basic Constraints: critical
                CA:FALSE
            X509v3 Authority Key Identifier: 
                keyid:B5:1E:B4:55:40:6E:BC:37:55:42:ED:7F:58:B8:73:F3:C4:3B:05:A6

    Signature Algorithm: ecdsa-with-SHA256
         30:45:02:21:00:c3:22:57:94:e5:df:ad:b6:f1:40:7d:93:db:
         ee:b4:3c:2e:25:6b:ef:25:af:0a:51:2f:79:ca:8c:49:8f:a6:
         10:02:20:07:e3:82:c8:36:03:d1:23:94:33:11:f8:e6:11:fe:
         cd:6a:60:40:5f:98:98:eb:b4:94:85:04:71:cb:23:9e:7d
-----BEGIN CERTIFICATE-----
MIICTDCCAfKgAwIBAgIQV1szp05AutY5sXmBe3IWUjAKBggqhkjOPQQDAjAkMSIw
IAYDVQQDExlteS1zZWxmc2lnbmVkLWlkZW50aXR5LWNhMB4XDTIyMDEwMzE2Mzcy
N1oXDTIyMDQwMzE2MzcyN1owHjEcMBoGA1UEAxMTYWxpY2UtaWRlbnRpdHktY2Vy
dDCCASIwDQYJKoZIhvcNAQEBBQADggEPADCCAQoCggEBAKk1GE0Tu9GH24O3burs
GHQAHw4ByWMqUr21enOqohuXz82I5immDRAqtq680okEst5PSScvtyb8MJs7tSjr
inskCmD29eBNPNhCD8dT9PRASRAvSMC7h8mdeH5E3k4X5guMuTFi6kR4OWLaZNgD
XOtR3ystYQGSF7QqCAHRuc/3e6ta7lU1nwj4/GedgrIGSx9EjCf1Y6z7p5cOMbex
XpLs4g2kQMBGk6t2tjnZRJ3bVER0qjhLwp9uW8RvU7pPaN4W3/WzEaXCZZz9POzp
bmP6Xao8jDO/qujxTMbDpO2nCm+HffxU/k04eOFrdY7YB3aVwI4s13Av4d03y55Y
qyECAwEAAaNBMD8wDgYDVR0PAQH/BAQDAgWgMAwGA1UdEwEB/wQCMAAwHwYDVR0j
BBgwFoAUtR60VUBuvDdVQu1/WLhz88Q7BaYwCgYIKoZIzj0EAwIDSAAwRQIhAMMi
V5Tl36228UB9k9vutDwuJWvvJa8KUS95yoxJj6YQAiAH44LINgPRI5QzEfjmEf7N
amBAX5iY67SUhQRxyyOefQ==
-----END CERTIFICATE-----
